(dp0
S'labels'
p1
(lp2
(lp3
S'multifly'
p4
aS'multifly_none'
p5
aS'female'
p6
aS'female_none'
p7
aS'chase'
p8
aS'chase_none'
p9
ag4
ag5
aS'multifly'
p10
aS'multifly_none'
p11
ag10
aS'multifly_none'
p12
ag10
aS'female'
p13
aS'female_none'
p14
aS'chase'
p15
aS'chase_none'
p16
aS'multifly'
p17
aS'multifly_none'
p18
ag17
aS'multifly_none'
p19
aa(lp20
g4
ag5
ag6
ag7
ag8
ag9
aasS'names'
p21
(lp22
I1
aI3
asS't0'
p23
(lp24
(lp25
I2
aI45
aI100
aI190
aI350
aI500
aI790
aI900
aI138
aI204
aI14927
aI14975
aI15013
aI15115
aI15161
aI15257
aI15306
aI8849
aI8967
aI9060
aI9144
aa(lp26
I2380
aI2390
aI2430
aI2450
aI2470
aI2500
aasS't1'
p27
(lp28
(lp29
I40
aI80
aI150
aI270
aI450
aI600
aI850
aI1020
aI184
aI401
aI14957
aI14989
aI15042
aI15139
aI15179
aI15276
aI15338
aI8921
aI9041
aI9121
aI9213
aa(lp30
I2389
aI2400
aI2440
aI2460
aI2490
aI2530
aas.