(dp0
S'labels'
p1
(lp2
(lp3
S'multifly'
p4
aS'multifly_none'
p5
aS'female'
p6
aS'female_none'
p7
aS'chase'
p8
aS'chase_none'
p9
aa(lp10
g4
ag5
ag6
ag7
ag8
ag9
aasS'names'
p11
(lp12
I1
aI3
asS't0'
p13
(lp14
(lp15
I689
aI693
aI650
aI730
aI720
aI760
aa(lp16
I2380
aI2390
aI2430
aI2450
aI2470
aI2500
aasS't1'
p17
(lp18
(lp19
I692
aI700
aI710
aI740
aI755
aI764
aa(lp20
I2389
aI2400
aI2440
aI2460
aI2490
aI2530
aas.